target datalayout = "e-m:e-p270:32:32-p271:32:32-p272:64:64-i64:64-i128:128-f80:128-n8:16:32:64-S128"
target triple = "x86_64-pc-linux-gnu"

%"class.gmx::TextTableFormatter::Impl" = type <{ %"class.std::vector", i32, i32, i8, i8, [6 x i8] }>
%"class.std::vector" = type { %"struct.std::_Vector_base" }
%"struct.std::_Vector_base" = type { %"struct.std::_Vector_base<gmx::TextTableFormatter::Impl::ColumnData, std::allocator<gmx::TextTableFormatter::Impl::ColumnData>>::_Vector_impl" }
%"struct.std::_Vector_base<gmx::TextTableFormatter::Impl::ColumnData, std::allocator<gmx::TextTableFormatter::Impl::ColumnData>>::_Vector_impl" = type { %"struct.std::_Vector_base<gmx::TextTableFormatter::Impl::ColumnData, std::allocator<gmx::TextTableFormatter::Impl::ColumnData>>::_Vector_impl_data" }
%"struct.std::_Vector_base<gmx::TextTableFormatter::Impl::ColumnData, std::allocator<gmx::TextTableFormatter::Impl::ColumnData>>::_Vector_impl_data" = type { ptr, ptr, ptr }

; Function Attrs: mustprogress nounwind uwtable
define linkonce_odr void @_ZNSt15__new_allocatorIN3gmx18TextTableFormatter4Impl10ColumnDataEEC2Ev(ptr noundef nonnull align 1 dereferenceable(1) %0) unnamed_addr #0 comdat align 2 {
  %2 = alloca ptr, align 8
  store ptr %0, ptr %2, align 8, !tbaa !34
  ret void
}

; Function Attrs: mustprogress nounwind uwtable
define linkonce_odr void @_ZNSt12_Vector_baseIN3gmx18TextTableFormatter4Impl10ColumnDataESaIS3_EE17_Vector_impl_dataC2Ev(ptr noundef nonnull align 8 dereferenceable(24) %0) unnamed_addr #0 comdat align 2 {
  %2 = alloca ptr, align 8
  store ptr %0, ptr %2, align 8, !tbaa !29
  %3 = load ptr, ptr %2, align 8
  %4 = getelementptr inbounds nuw %"struct.std::_Vector_base<gmx::TextTableFormatter::Impl::ColumnData, std::allocator<gmx::TextTableFormatter::Impl::ColumnData>>::_Vector_impl_data", ptr %3, i32 0, i32 0
  store ptr null, ptr %4, align 8, !tbaa !31
  %5 = getelementptr inbounds nuw %"struct.std::_Vector_base<gmx::TextTableFormatter::Impl::ColumnData, std::allocator<gmx::TextTableFormatter::Impl::ColumnData>>::_Vector_impl_data", ptr %3, i32 0, i32 1
  store ptr null, ptr %5, align 8, !tbaa !32
  %6 = getelementptr inbounds nuw %"struct.std::_Vector_base<gmx::TextTableFormatter::Impl::ColumnData, std::allocator<gmx::TextTableFormatter::Impl::ColumnData>>::_Vector_impl_data", ptr %3, i32 0, i32 2
  store ptr null, ptr %6, align 8, !tbaa !33
  ret void
}

; Function Attrs: mustprogress nounwind uwtable
define linkonce_odr void @_ZNSaIN3gmx18TextTableFormatter4Impl10ColumnDataEEC2Ev(ptr noundef nonnull align 1 dereferenceable(1) %0) unnamed_addr #0 comdat align 2 {
  %2 = alloca ptr, align 8
  store ptr %0, ptr %2, align 8, !tbaa !27
  %3 = load ptr, ptr %2, align 8
  call void @_ZNSt15__new_allocatorIN3gmx18TextTableFormatter4Impl10ColumnDataEEC2Ev(ptr noundef nonnull align 1 dereferenceable(1) %3) #15
  ret void
}

; Function Attrs: mustprogress nounwind uwtable
define linkonce_odr void @_ZNSt12_Vector_baseIN3gmx18TextTableFormatter4Impl10ColumnDataESaIS3_EE12_Vector_implC2Ev(ptr noundef nonnull align 8 dereferenceable(24) %0) unnamed_addr #0 comdat align 2 {
  %2 = alloca ptr, align 8
  store ptr %0, ptr %2, align 8, !tbaa !25
  %3 = load ptr, ptr %2, align 8
  call void @_ZNSaIN3gmx18TextTableFormatter4Impl10ColumnDataEEC2Ev(ptr noundef nonnull align 1 dereferenceable(1) %3) #15
  call void @_ZNSt12_Vector_baseIN3gmx18TextTableFormatter4Impl10ColumnDataESaIS3_EE17_Vector_impl_dataC2Ev(ptr noundef nonnull align 8 dereferenceable(24) %3) #15
  ret void
}

; Function Attrs: mustprogress nounwind uwtable
define linkonce_odr void @_ZNSt12_Vector_baseIN3gmx18TextTableFormatter4Impl10ColumnDataESaIS3_EEC2Ev(ptr noundef nonnull align 8 dereferenceable(24) %0) unnamed_addr #0 comdat align 2 {
  %2 = alloca ptr, align 8
  store ptr %0, ptr %2, align 8, !tbaa !23
  %3 = load ptr, ptr %2, align 8
  %4 = getelementptr inbounds nuw %"struct.std::_Vector_base", ptr %3, i32 0, i32 0
  call void @_ZNSt12_Vector_baseIN3gmx18TextTableFormatter4Impl10ColumnDataESaIS3_EE12_Vector_implC2Ev(ptr noundef nonnull align 8 dereferenceable(24) %4) #15
  ret void
}

; Function Attrs: mustprogress nounwind uwtable
define linkonce_odr void @_ZNSt6vectorIN3gmx18TextTableFormatter4Impl10ColumnDataESaIS3_EEC2Ev(ptr noundef nonnull align 8 dereferenceable(24) %0) unnamed_addr #0 comdat align 2 {
  %2 = alloca ptr, align 8
  store ptr %0, ptr %2, align 8, !tbaa !21
  %3 = load ptr, ptr %2, align 8
  call void @_ZNSt12_Vector_baseIN3gmx18TextTableFormatter4Impl10ColumnDataESaIS3_EEC2Ev(ptr noundef nonnull align 8 dereferenceable(24) %3) #15
  ret void
}

; Function Attrs: mustprogress nounwind uwtable
define void @_ZN3gmx18TextTableFormatter4ImplC2Ev(ptr noundef nonnull align 8 dereferenceable(34) %0) unnamed_addr #0 align 2 {
  %2 = alloca ptr, align 8
  store ptr %0, ptr %2, align 8, !tbaa !4
  %3 = load ptr, ptr %2, align 8
  %4 = getelementptr inbounds nuw %"class.gmx::TextTableFormatter::Impl", ptr %3, i32 0, i32 0
  call void @_ZNSt6vectorIN3gmx18TextTableFormatter4Impl10ColumnDataESaIS3_EEC2Ev(ptr noundef nonnull align 8 dereferenceable(24) %4) #15
  %5 = getelementptr inbounds nuw %"class.gmx::TextTableFormatter::Impl", ptr %3, i32 0, i32 1
  store i32 0, ptr %5, align 8, !tbaa !9
  %6 = getelementptr inbounds nuw %"class.gmx::TextTableFormatter::Impl", ptr %3, i32 0, i32 2
  store i32 -1, ptr %6, align 4, !tbaa !18
  %7 = getelementptr inbounds nuw %"class.gmx::TextTableFormatter::Impl", ptr %3, i32 0, i32 3
  store i8 1, ptr %7, align 8, !tbaa !19
  %8 = getelementptr inbounds nuw %"class.gmx::TextTableFormatter::Impl", ptr %3, i32 0, i32 4
  store i8 0, ptr %8, align 1, !tbaa !20
  ret void
}