; Function Attrs: mustprogress nofree norecurse nosync nounwind willreturn memory(argmem: write) uwtable
define void @_ZN3gmx18TextTableFormatter4ImplC2Ev(ptr noundef nonnull writeonly align 8 captures(none) dereferenceable(34) initializes((0, 34)) %0) unnamed_addr #0 align 2 {
  %2 = getelementptr inbounds nuw i8, ptr %0, i64 28
  tail call void @llvm.memset.p0.i64(ptr noundef nonnull align 8 dereferenceable(28) %0, i8 0, i64 28, i1 false)
  store i32 -1, ptr %2, align 4, !tbaa !4
  %3 = getelementptr inbounds nuw i8, ptr %0, i64 32
  store i8 1, ptr %3, align 8, !tbaa !16
  %4 = getelementptr inbounds nuw i8, ptr %0, i64 33
  store i8 0, ptr %4, align 1, !tbaa !17
  ret void
}